target datalayout = "e-m:e-p270:32:32-p271:32:32-p272:64:64-i64:64-i128:128-f80:128-n8:16:32:64-S128"
target triple = "x86_64-pc-linux-gnu"

%struct.PQExpBufferData = type { ptr, i64, i64 }

@appendStringLiteralDQ.suffixes = internal constant [9 x i8] c"_XXXXXXX\00", align 1

; Function Attrs: nounwind uwtable
define dso_local void @appendStringLiteralDQ(ptr noundef %0, ptr noundef %1, ptr noundef %2) #0 {
  %4 = alloca ptr, align 8
  %5 = alloca ptr, align 8
  %6 = alloca ptr, align 8
  %7 = alloca i32, align 4
  %8 = alloca ptr, align 8
  store ptr %0, ptr %4, align 8
  store ptr %1, ptr %5, align 8
  store ptr %2, ptr %6, align 8
  call void @llvm.lifetime.start.p0(i64 4, ptr %7) #8
  store i32 0, ptr %7, align 4
  call void @llvm.lifetime.start.p0(i64 8, ptr %8) #8
  %9 = call ptr @createPQExpBuffer()
  store ptr %9, ptr %8, align 8
  %10 = load ptr, ptr %8, align 8
  call void @appendPQExpBufferChar(ptr noundef %10, i8 noundef signext 36)
  %11 = load ptr, ptr %6, align 8
  %12 = icmp ne ptr %11, null
  br i1 %12, label %13, label %16

13:                                               ; preds = %3
  %14 = load ptr, ptr %8, align 8
  %15 = load ptr, ptr %6, align 8
  call void @appendPQExpBufferStr(ptr noundef %14, ptr noundef %15)
  br label %16

16:                                               ; preds = %13, %3
  br label %17

17:                                               ; preds = %24, %16
  %18 = load ptr, ptr %5, align 8
  %19 = load ptr, ptr %8, align 8
  %20 = getelementptr inbounds nuw %struct.PQExpBufferData, ptr %19, i32 0, i32 0
  %21 = load ptr, ptr %20, align 8
  %22 = call ptr @strstr(ptr noundef %18, ptr noundef %21) #9
  %23 = icmp ne ptr %22, null
  br i1 %23, label %24, label %35

24:                                               ; preds = %17
  %25 = load ptr, ptr %8, align 8
  %26 = load i32, ptr %7, align 4
  %27 = add i32 %26, 1
  store i32 %27, ptr %7, align 4
  %28 = sext i32 %26 to i64
  %29 = getelementptr inbounds [9 x i8], ptr @appendStringLiteralDQ.suffixes, i64 0, i64 %28
  %30 = load i8, ptr %29, align 1
  call void @appendPQExpBufferChar(ptr noundef %25, i8 noundef signext %30)
  %31 = load i32, ptr %7, align 4
  %32 = sext i32 %31 to i64
  %33 = urem i64 %32, 8
  %34 = trunc i64 %33 to i32
  store i32 %34, ptr %7, align 4
  br label %17, !llvm.loop !12

35:                                               ; preds = %17
  %36 = load ptr, ptr %8, align 8
  call void @appendPQExpBufferChar(ptr noundef %36, i8 noundef signext 36)
  %37 = load ptr, ptr %4, align 8
  %38 = load ptr, ptr %8, align 8
  %39 = getelementptr inbounds nuw %struct.PQExpBufferData, ptr %38, i32 0, i32 0
  %40 = load ptr, ptr %39, align 8
  call void @appendPQExpBufferStr(ptr noundef %37, ptr noundef %40)
  %41 = load ptr, ptr %4, align 8
  %42 = load ptr, ptr %5, align 8
  call void @appendPQExpBufferStr(ptr noundef %41, ptr noundef %42)
  %43 = load ptr, ptr %4, align 8
  %44 = load ptr, ptr %8, align 8
  %45 = getelementptr inbounds nuw %struct.PQExpBufferData, ptr %44, i32 0, i32 0
  %46 = load ptr, ptr %45, align 8
  call void @appendPQExpBufferStr(ptr noundef %43, ptr noundef %46)
  %47 = load ptr, ptr %8, align 8
  call void @destroyPQExpBuffer(ptr noundef %47)
  call void @llvm.lifetime.end.p0(i64 8, ptr %8) #8
  call void @llvm.lifetime.end.p0(i64 4, ptr %7) #8
  ret void
}