; Function Attrs: nounwind uwtable
define dso_local void @appendStringLiteralDQ(ptr noundef %0, ptr noundef %1, ptr noundef %2) local_unnamed_addr #0 {
  %4 = tail call ptr @createPQExpBuffer() #11
  tail call void @appendPQExpBufferChar(ptr noundef %4, i8 noundef signext 36) #11
  %.not = icmp eq ptr %2, null
  br i1 %.not, label %6, label %5

5:                                                ; preds = %3
  tail call void @appendPQExpBufferStr(ptr noundef %4, ptr noundef nonnull %2) #11
  br label %6

6:                                                ; preds = %5, %3
  %7 = load ptr, ptr %4, align 8
  %8 = tail call ptr @strstr(ptr noundef nonnull dereferenceable(1) %1, ptr noundef nonnull dereferenceable(1) %7) #12
  %.not1718 = icmp eq ptr %8, null
  br i1 %.not1718, label %._crit_edge, label %.lr.ph

.lr.ph:                                           ; preds = %6, %.lr.ph
  %.019 = phi i32 [ %13, %.lr.ph ], [ 0, %6 ]
  %9 = add nuw nsw i32 %.019, 1
  %10 = zext nneg i32 %.019 to i64
  %11 = getelementptr inbounds nuw [9 x i8], ptr @appendStringLiteralDQ.suffixes, i64 0, i64 %10
  %12 = load i8, ptr %11, align 1
  tail call void @appendPQExpBufferChar(ptr noundef nonnull %4, i8 noundef signext %12) #11
  %13 = and i32 %9, 7
  %14 = load ptr, ptr %4, align 8
  %15 = tail call ptr @strstr(ptr noundef nonnull dereferenceable(1) %1, ptr noundef nonnull dereferenceable(1) %14) #12
  %.not17 = icmp eq ptr %15, null
  br i1 %.not17, label %._crit_edge, label %.lr.ph, !llvm.loop !10

._crit_edge:                                      ; preds = %.lr.ph, %6
  tail call void @appendPQExpBufferChar(ptr noundef nonnull %4, i8 noundef signext 36) #11
  %16 = load ptr, ptr %4, align 8
  tail call void @appendPQExpBufferStr(ptr noundef %0, ptr noundef %16) #11
  tail call void @appendPQExpBufferStr(ptr noundef %0, ptr noundef nonnull %1) #11
  %17 = load ptr, ptr %4, align 8
  tail call void @appendPQExpBufferStr(ptr noundef %0, ptr noundef %17) #11
  tail call void @destroyPQExpBuffer(ptr noundef nonnull %4) #11
  ret void
}